; Function Attrs: nounwind uwtable
define dso_local noundef i32 @cmd_upload_archive(i32 noundef %0, ptr noundef %1, ptr noundef %2, ptr noundef readnone captures(none) %3) local_unnamed_addr #0 {
  %5 = alloca [16384 x i8], align 16
  %6 = alloca [16384 x i8], align 16
  %7 = alloca %struct.child_process, align 8
  %8 = alloca [2 x %struct.pollfd], align 16
  call void @llvm.lifetime.start.p0(i64 120, ptr nonnull %7) #10
  call void @llvm.memcpy.p0.p0.i64(ptr noundef nonnull align 8 dereferenceable(120) %7, ptr noundef nonnull align 8 dereferenceable(120) @__const.cmd_upload_archive.writer, i64 120, i1 false)
  %.not = icmp eq ptr %2, null
  br i1 %.not, label %10, label %9

9:                                                ; preds = %4
  tail call void (ptr, i32, ptr, ...) @BUG_fl(ptr noundef nonnull @.str.5, i32 noundef 94, ptr noundef nonnull @.str.6, ptr noundef nonnull %2) #11
  unreachable

10:                                               ; preds = %4
  tail call void @show_usage_if_asked(i32 noundef %0, ptr noundef %1, ptr noundef nonnull @upload_archive_usage) #10
  %11 = getelementptr inbounds nuw i8, ptr %7, i64 88
  store i32 -1, ptr %11, align 8, !tbaa !16
  %12 = getelementptr inbounds nuw i8, ptr %7, i64 84
  store i32 -1, ptr %12, align 4, !tbaa !19
  %13 = getelementptr inbounds nuw i8, ptr %7, i64 104
  store i16 8, ptr %13, align 8
  %14 = call ptr @strvec_push(ptr noundef nonnull %7, ptr noundef nonnull @.str.7) #10
  %15 = getelementptr inbounds nuw i8, ptr %1, i64 8
  call void @strvec_pushv(ptr noundef nonnull %7, ptr noundef nonnull %15) #10
  %16 = call i32 @start_command(ptr noundef nonnull %7) #10
  %.not7 = icmp eq i32 %16, 0
  br i1 %.not7, label %21, label %17

17:                                               ; preds = %10
  %18 = tail call ptr @__errno_location() #12
  %19 = load i32, ptr %18, align 4, !tbaa !20
  call void (i32, ptr, ...) @packet_write_fmt(i32 noundef 1, ptr noundef nonnull @.str.8) #10
  %20 = call ptr @strerror(i32 noundef %19) #10
  call void (ptr, ...) @die(ptr noundef nonnull @.str.9, ptr noundef %20) #11
  unreachable

21:                                               ; preds = %10
  call void (i32, ptr, ...) @packet_write_fmt(i32 noundef 1, ptr noundef nonnull @.str.10) #10
  call void @packet_flush(i32 noundef 1) #10
  %22 = getelementptr inbounds nuw i8, ptr %8, i64 4
  %23 = getelementptr inbounds nuw i8, ptr %8, i64 8
  %24 = getelementptr inbounds nuw i8, ptr %8, i64 12
  %25 = getelementptr inbounds nuw i8, ptr %8, i64 14
  %26 = getelementptr inbounds nuw i8, ptr %8, i64 6
  br label %27

27:                                               ; preds = %65, %21
  call void @llvm.lifetime.start.p0(i64 16, ptr nonnull %8) #10
  %28 = load i32, ptr %12, align 4, !tbaa !19
  store i32 %28, ptr %8, align 16, !tbaa !21
  store i16 1, ptr %22, align 4, !tbaa !24
  %29 = load i32, ptr %11, align 8, !tbaa !16
  store i32 %29, ptr %23, align 8, !tbaa !21
  store i16 1, ptr %24, align 4, !tbaa !24
  %30 = call i32 @poll(ptr noundef nonnull %8, i64 noundef 2, i32 noundef -1) #10
  %31 = icmp slt i32 %30, 0
  br i1 %31, label %32, label %38

32:                                               ; preds = %27
  %33 = tail call ptr @__errno_location() #12
  %34 = load i32, ptr %33, align 4, !tbaa !20
  %.not13 = icmp eq i32 %34, 4
  br i1 %.not13, label %65, label %35

35:                                               ; preds = %32
  %36 = call i32 (ptr, ...) @error_errno(ptr noundef nonnull @.str.11) #10
  %37 = call i32 @sleep(i32 noundef 1) #10
  br label %65

38:                                               ; preds = %27
  %39 = load i16, ptr %25, align 2, !tbaa !25
  %40 = and i16 %39, 1
  %.not8 = icmp eq i16 %40, 0
  br i1 %.not8, label %50, label %41

41:                                               ; preds = %38
  %42 = load i32, ptr %23, align 8, !tbaa !21
  call void @llvm.lifetime.start.p0(i64 16384, ptr nonnull %6) #10
  %43 = call i64 @read(i32 noundef %42, ptr noundef nonnull %6, i64 noundef 16384) #10
  %44 = icmp slt i64 %43, 0
  br i1 %44, label %45, label %process_input.exit

45:                                               ; preds = %41
  %46 = tail call ptr @__errno_location() #12
  %47 = load i32, ptr %46, align 4, !tbaa !20
  switch i32 %47, label %48 [
    i32 11, label %process_input.exit.thread
    i32 4, label %process_input.exit.thread
  ]

48:                                               ; preds = %45
  %49 = call ptr @strerror(i32 noundef %47) #10
  call void (ptr, ...) @error_clnt(ptr noundef nonnull @.str.13, ptr noundef %49)
  unreachable

process_input.exit.thread:                        ; preds = %45, %45
  call void @llvm.lifetime.end.p0(i64 16384, ptr nonnull %6) #10
  br label %65

process_input.exit:                               ; preds = %41
  call void @send_sideband(i32 noundef 1, i32 noundef 2, ptr noundef nonnull %6, i64 noundef %43, i32 noundef 65520) #10
  call void @llvm.lifetime.end.p0(i64 16384, ptr nonnull %6) #10
  %.not9 = icmp eq i64 %43, 0
  br i1 %.not9, label %50, label %65

50:                                               ; preds = %process_input.exit, %38
  %51 = load i16, ptr %26, align 2, !tbaa !25
  %52 = and i16 %51, 1
  %.not10 = icmp eq i16 %52, 0
  br i1 %.not10, label %62, label %53

53:                                               ; preds = %50
  %54 = load i32, ptr %8, align 16, !tbaa !21
  call void @llvm.lifetime.start.p0(i64 16384, ptr nonnull %5) #10
  %55 = call i64 @read(i32 noundef %54, ptr noundef nonnull %5, i64 noundef 16384) #10
  %56 = icmp slt i64 %55, 0
  br i1 %56, label %57, label %process_input.exit14

57:                                               ; preds = %53
  %58 = tail call ptr @__errno_location() #12
  %59 = load i32, ptr %58, align 4, !tbaa !20
  switch i32 %59, label %60 [
    i32 11, label %process_input.exit14.thread
    i32 4, label %process_input.exit14.thread
  ]

60:                                               ; preds = %57
  %61 = call ptr @strerror(i32 noundef %59) #10
  call void (ptr, ...) @error_clnt(ptr noundef nonnull @.str.13, ptr noundef %61)
  unreachable

process_input.exit14.thread:                      ; preds = %57, %57
  call void @llvm.lifetime.end.p0(i64 16384, ptr nonnull %5) #10
  br label %65

process_input.exit14:                             ; preds = %53
  call void @send_sideband(i32 noundef 1, i32 noundef 1, ptr noundef nonnull %5, i64 noundef %55, i32 noundef 65520) #10
  call void @llvm.lifetime.end.p0(i64 16384, ptr nonnull %5) #10
  %.not11 = icmp eq i64 %55, 0
  br i1 %.not11, label %62, label %65

62:                                               ; preds = %process_input.exit14, %50
  %63 = call i32 @finish_command(ptr noundef nonnull %7) #10
  %.not12 = icmp eq i32 %63, 0
  br i1 %.not12, label %66, label %64

64:                                               ; preds = %62
  call void (ptr, ...) @error_clnt(ptr noundef nonnull @.str.12, ptr noundef nonnull @deadchild)
  unreachable

65:                                               ; preds = %process_input.exit14.thread, %process_input.exit.thread, %process_input.exit14, %process_input.exit, %32, %35
  call void @llvm.lifetime.end.p0(i64 16, ptr nonnull %8) #10
  br label %27

66:                                               ; preds = %62
  call void @packet_flush(i32 noundef 1) #10
  call void @llvm.lifetime.end.p0(i64 16, ptr nonnull %8) #10
  call void @llvm.lifetime.end.p0(i64 120, ptr nonnull %7) #10
  ret i32 0
}